target datalayout = "e-m:e-p270:32:32-p271:32:32-p272:64:64-i64:64-i128:128-f80:128-n8:16:32:64-S128"
target triple = "x86_64-unknown-linux-gnu"

%struct.napi_env__ = type <{ ptr, ptr, %"class.v8::Global", %"class.v8::Global.0", %"class.v8impl::RefTracker", %"class.v8impl::RefTracker", %"class.std::unordered_set", %struct.napi_extended_error_info, i32, i32, i32, [4 x i8], ptr, i32, i8, [3 x i8] }>
%"class.v8::Global" = type { %"class.v8::PersistentBase" }
%"class.v8::PersistentBase" = type { %"class.v8::IndirectHandleBase" }
%"class.v8::IndirectHandleBase" = type { ptr }
%"class.v8::Global.0" = type { %"class.v8::PersistentBase.1" }
%"class.v8::PersistentBase.1" = type { %"class.v8::IndirectHandleBase" }
%"class.v8impl::RefTracker" = type { ptr, ptr, ptr }
%"class.std::unordered_set" = type { %"class.std::_Hashtable" }
%"class.std::_Hashtable" = type { ptr, i64, %"struct.std::__detail::_Hash_node_base", i64, %"struct.std::__detail::_Prime_rehash_policy", ptr }
%"struct.std::__detail::_Hash_node_base" = type { ptr }
%"struct.std::__detail::_Prime_rehash_policy" = type { float, i64 }
%struct.napi_extended_error_info = type { ptr, ptr, i32, i32 }
%"class.v8::Local" = type { %"class.v8::LocalBase" }
%"class.v8::LocalBase" = type { %"class.v8::IndirectHandleBase" }
%"class.v8::LocalBase.44" = type { %"class.v8::IndirectHandleBase" }
%"class.v8::Local.43" = type { %"class.v8::LocalBase.44" }

; Function Attrs: mustprogress nounwind uwtable
define linkonce_odr dso_local noundef i32 @_Z21napi_clear_last_errorP10napi_env__(ptr noundef %env) #4 comdat {
entry:
  %env.addr = alloca ptr, align 8
  store ptr %env, ptr %env.addr, align 8
  %0 = load ptr, ptr %env.addr, align 8
  %last_error = getelementptr inbounds %struct.napi_env__, ptr %0, i32 0, i32 7
  %error_code = getelementptr inbounds %struct.napi_extended_error_info, ptr %last_error, i32 0, i32 3
  store i32 0, ptr %error_code, align 4
  %1 = load ptr, ptr %env.addr, align 8
  %last_error1 = getelementptr inbounds %struct.napi_env__, ptr %1, i32 0, i32 7
  %engine_error_code = getelementptr inbounds %struct.napi_extended_error_info, ptr %last_error1, i32 0, i32 2
  store i32 0, ptr %engine_error_code, align 8
  %2 = load ptr, ptr %env.addr, align 8
  %last_error2 = getelementptr inbounds %struct.napi_env__, ptr %2, i32 0, i32 7
  %engine_reserved = getelementptr inbounds %struct.napi_extended_error_info, ptr %last_error2, i32 0, i32 1
  store ptr null, ptr %engine_reserved, align 8
  %3 = load ptr, ptr %env.addr, align 8
  %last_error3 = getelementptr inbounds %struct.napi_env__, ptr %3, i32 0, i32 7
  %error_message = getelementptr inbounds %struct.napi_extended_error_info, ptr %last_error3, i32 0, i32 0
  store ptr null, ptr %error_message, align 8
  ret i32 0
}

; Function Attrs: mustprogress nounwind uwtable
define linkonce_odr dso_local noundef ptr @_ZN6v8impl23JsValueFromV8LocalValueEN2v85LocalINS0_5ValueEEE(ptr %local.coerce) #4 comdat {
entry:
  %slot.addr.i = alloca ptr, align 8
  %this.addr.i.i3 = alloca ptr, align 8
  %this.addr.i4 = alloca ptr, align 8
  %this.addr.i.i = alloca ptr, align 8
  %this.addr.i = alloca ptr, align 8
  %local = alloca %"class.v8::Local", align 8
  %coerce.dive = getelementptr inbounds %"class.v8::Local", ptr %local, i32 0, i32 0
  %coerce.dive1 = getelementptr inbounds %"class.v8::LocalBase", ptr %coerce.dive, i32 0, i32 0
  %coerce.dive2 = getelementptr inbounds %"class.v8::IndirectHandleBase", ptr %coerce.dive1, i32 0, i32 0
  store ptr %local.coerce, ptr %coerce.dive2, align 8
  store ptr %local, ptr %this.addr.i, align 8
  %this1.i = load ptr, ptr %this.addr.i, align 8
  store ptr %this1.i, ptr %this.addr.i.i, align 8
  %this1.i.i = load ptr, ptr %this.addr.i.i, align 8
  store ptr %this1.i.i, ptr %this.addr.i4, align 8
  %this1.i5 = load ptr, ptr %this.addr.i4, align 8
  store ptr %this1.i5, ptr %this.addr.i.i3, align 8
  %this1.i.i6 = load ptr, ptr %this.addr.i.i3, align 8
  %0 = load ptr, ptr %this1.i.i6, align 8
  store ptr %0, ptr %slot.addr.i, align 8
  %1 = load ptr, ptr %slot.addr.i, align 8
  ret ptr %1
}

; Function Attrs: mustprogress nounwind uwtable
define linkonce_odr dso_local noundef i32 @_Z19napi_set_last_errorP10napi_env__11napi_statusjPv(ptr noundef %env, i32 noundef %error_code, i32 noundef %engine_error_code, ptr noundef %engine_reserved) #4 comdat {
entry:
  %env.addr = alloca ptr, align 8
  %error_code.addr = alloca i32, align 4
  %engine_error_code.addr = alloca i32, align 4
  %engine_reserved.addr = alloca ptr, align 8
  store ptr %env, ptr %env.addr, align 8
  store i32 %error_code, ptr %error_code.addr, align 4
  store i32 %engine_error_code, ptr %engine_error_code.addr, align 4
  store ptr %engine_reserved, ptr %engine_reserved.addr, align 8
  %0 = load i32, ptr %error_code.addr, align 4
  %1 = load ptr, ptr %env.addr, align 8
  %last_error = getelementptr inbounds %struct.napi_env__, ptr %1, i32 0, i32 7
  %error_code1 = getelementptr inbounds %struct.napi_extended_error_info, ptr %last_error, i32 0, i32 3
  store i32 %0, ptr %error_code1, align 4
  %2 = load i32, ptr %engine_error_code.addr, align 4
  %3 = load ptr, ptr %env.addr, align 8
  %last_error2 = getelementptr inbounds %struct.napi_env__, ptr %3, i32 0, i32 7
  %engine_error_code3 = getelementptr inbounds %struct.napi_extended_error_info, ptr %last_error2, i32 0, i32 2
  store i32 %2, ptr %engine_error_code3, align 8
  %4 = load ptr, ptr %engine_reserved.addr, align 8
  %5 = load ptr, ptr %env.addr, align 8
  %last_error4 = getelementptr inbounds %struct.napi_env__, ptr %5, i32 0, i32 7
  %engine_reserved5 = getelementptr inbounds %struct.napi_extended_error_info, ptr %last_error4, i32 0, i32 1
  store ptr %4, ptr %engine_reserved5, align 8
  %6 = load i32, ptr %error_code.addr, align 4
  ret i32 %6
}

; Function Attrs: mustprogress nounwind uwtable
define linkonce_odr dso_local void @_ZN10napi_env__13CheckGCAccessEv(ptr noundef nonnull align 8 dereferenceable(189) %this) #4 comdat align 2 {
entry:
  %this.addr = alloca ptr, align 8
  store ptr %this, ptr %this.addr, align 8
  %this1 = load ptr, ptr %this.addr, align 8
  %module_api_version = getelementptr inbounds %struct.napi_env__, ptr %this1, i32 0, i32 13
  %0 = load i32, ptr %module_api_version, align 8
  %cmp = icmp eq i32 %0, 2147483647
  br i1 %cmp, label %land.lhs.true, label %if.end

land.lhs.true:                                    ; preds = %entry
  %in_gc_finalizer = getelementptr inbounds %struct.napi_env__, ptr %this1, i32 0, i32 14
  %1 = load i8, ptr %in_gc_finalizer, align 4
  %tobool = trunc i8 %1 to i1
  br i1 %tobool, label %if.then, label %if.end

if.then:                                          ; preds = %land.lhs.true
  call void @_ZN6v8impl12OnFatalErrorEPKcS1_(ptr noundef null, ptr noundef @.str.41) #17
  unreachable

if.end:                                           ; preds = %land.lhs.true, %entry
  ret void
}

; Function Attrs: mustprogress nounwind uwtable
define dso_local i32 @napi_get_boolean(ptr noundef %env, i1 noundef zeroext %value, ptr noundef %result) #4 {
entry:
  %this.addr.i78 = alloca ptr, align 8
  %other.addr.i79 = alloca ptr, align 8
  %this.addr.i75 = alloca ptr, align 8
  %other.addr.i76 = alloca ptr, align 8
  %this.addr.i.i69 = alloca ptr, align 8
  %location.addr.i.i70 = alloca ptr, align 8
  %this.addr.i71 = alloca ptr, align 8
  %location.addr.i72 = alloca ptr, align 8
  %this.addr.i.i = alloca ptr, align 8
  %location.addr.i.i = alloca ptr, align 8
  %this.addr.i67 = alloca ptr, align 8
  %location.addr.i = alloca ptr, align 8
  %this.addr.i64 = alloca ptr, align 8
  %other.addr.i65 = alloca ptr, align 8
  %this.addr.i63 = alloca ptr, align 8
  %other.addr.i = alloca ptr, align 8
  %retval.i61 = alloca %"class.v8::LocalBase.44", align 8
  %slot.addr.i62 = alloca ptr, align 8
  %retval.i59 = alloca %"class.v8::LocalBase.44", align 8
  %slot.addr.i60 = alloca ptr, align 8
  %retval.i55 = alloca %"class.v8::Local.43", align 8
  %slot.addr.i56 = alloca ptr, align 8
  %ref.tmp.i57 = alloca %"class.v8::LocalBase.44", align 8
  %retval.i54 = alloca %"class.v8::Local.43", align 8
  %slot.addr.i = alloca ptr, align 8
  %ref.tmp.i = alloca %"class.v8::LocalBase.44", align 8
  %isolate.addr.i53 = alloca ptr, align 8
  %isolate.addr.i52 = alloca ptr, align 8
  %isolate.addr.i45 = alloca ptr, align 8
  %index.addr.i46 = alloca i32, align 4
  %addr.i47 = alloca i64, align 8
  %isolate.addr.i44 = alloca ptr, align 8
  %index.addr.i = alloca i32, align 4
  %addr.i = alloca i64, align 8
  %retval.i39 = alloca %"class.v8::Local.43", align 8
  %isolate.addr.i40 = alloca ptr, align 8
  %slot.i41 = alloca ptr, align 8
  %that.i36 = alloca %"class.v8::Local.43", align 8
  %this.addr.i37 = alloca ptr, align 8
  %that.i = alloca %"class.v8::Local.43", align 8
  %this.addr.i = alloca ptr, align 8
  %retval.i = alloca %"class.v8::Local.43", align 8
  %isolate.addr.i = alloca ptr, align 8
  %slot.i = alloca ptr, align 8
  %retval = alloca i32, align 4
  %env.addr = alloca ptr, align 8
  %value.addr = alloca i8, align 1
  %result.addr = alloca ptr, align 8
  %isolate = alloca ptr, align 8
  %agg.tmp = alloca %"class.v8::Local", align 8
  %agg.tmp10 = alloca %"class.v8::Local.43", align 8
  %agg.tmp21 = alloca %"class.v8::Local", align 8
  %agg.tmp22 = alloca %"class.v8::Local.43", align 8
  store ptr %env, ptr %env.addr, align 8
  %frombool = zext i1 %value to i8
  store i8 %frombool, ptr %value.addr, align 1
  store ptr %result, ptr %result.addr, align 8
  br label %do.body

do.body:                                          ; preds = %entry
  br label %do.body1

do.body1:                                         ; preds = %do.body
  %0 = load ptr, ptr %env.addr, align 8
  %cmp = icmp eq ptr %0, null
  br i1 %cmp, label %if.then, label %if.end

if.then:                                          ; preds = %do.body1
  store i32 1, ptr %retval, align 4
  br label %return

if.end:                                           ; preds = %do.body1
  br label %do.end

do.end:                                           ; preds = %if.end
  %1 = load ptr, ptr %env.addr, align 8
  call void @_ZN10napi_env__13CheckGCAccessEv(ptr noundef nonnull align 8 dereferenceable(189) %1)
  br label %do.end2

do.end2:                                          ; preds = %do.end
  br label %do.body3

do.body3:                                         ; preds = %do.end2
  %2 = load ptr, ptr %result.addr, align 8
  %cmp4 = icmp ne ptr %2, null
  br i1 %cmp4, label %if.end6, label %if.then5

if.then5:                                         ; preds = %do.body3
  %3 = load ptr, ptr %env.addr, align 8
  %call = call noundef i32 @_Z19napi_set_last_errorP10napi_env__11napi_statusjPv(ptr noundef %3, i32 noundef 1, i32 noundef 0, ptr noundef null)
  store i32 %call, ptr %retval, align 4
  br label %return

if.end6:                                          ; preds = %do.body3
  br label %do.end7

do.end7:                                          ; preds = %if.end6
  %4 = load ptr, ptr %env.addr, align 8
  %isolate8 = getelementptr inbounds %struct.napi_env__, ptr %4, i32 0, i32 1
  %5 = load ptr, ptr %isolate8, align 8
  store ptr %5, ptr %isolate, align 8
  %6 = load i8, ptr %value.addr, align 1
  %tobool = trunc i8 %6 to i1
  br i1 %tobool, label %if.then9, label %if.else

if.then9:                                         ; preds = %do.end7
  %7 = load ptr, ptr %isolate, align 8
  store ptr %7, ptr %isolate.addr.i, align 8
  %8 = load ptr, ptr %isolate.addr.i, align 8
  store ptr %8, ptr %isolate.addr.i53, align 8
  %9 = load ptr, ptr %isolate.addr.i, align 8
  store ptr %9, ptr %isolate.addr.i45, align 8
  store i32 7, ptr %index.addr.i46, align 4
  %10 = load ptr, ptr %isolate.addr.i45, align 8
  %11 = ptrtoint ptr %10 to i64
  %add.i48 = add i64 %11, 576
  %12 = load i32, ptr %index.addr.i46, align 4
  %mul.i49 = mul nsw i32 %12, 8
  %conv.i50 = sext i32 %mul.i49 to i64
  %add1.i51 = add i64 %add.i48, %conv.i50
  store i64 %add1.i51, ptr %addr.i47, align 8
  %13 = load i64, ptr %addr.i47, align 8
  %14 = inttoptr i64 %13 to ptr
  store ptr %14, ptr %slot.i, align 8
  %15 = load ptr, ptr %slot.i, align 8
  store ptr %15, ptr %slot.addr.i56, align 8
  %16 = load ptr, ptr %slot.addr.i56, align 8
  store ptr %16, ptr %slot.addr.i60, align 8
  %17 = load ptr, ptr %slot.addr.i60, align 8
  store ptr %retval.i59, ptr %this.addr.i71, align 8
  store ptr %17, ptr %location.addr.i72, align 8
  %this1.i73 = load ptr, ptr %this.addr.i71, align 8
  %18 = load ptr, ptr %location.addr.i72, align 8
  store ptr %this1.i73, ptr %this.addr.i.i69, align 8
  store ptr %18, ptr %location.addr.i.i70, align 8
  %this1.i.i74 = load ptr, ptr %this.addr.i.i69, align 8
  %19 = load ptr, ptr %location.addr.i.i70, align 8
  store ptr %19, ptr %this1.i.i74, align 8
  %20 = load ptr, ptr %retval.i59, align 8
  store ptr %20, ptr %ref.tmp.i57, align 8
  store ptr %retval.i55, ptr %this.addr.i63, align 8
  store ptr %ref.tmp.i57, ptr %other.addr.i, align 8
  %this1.i = load ptr, ptr %this.addr.i63, align 8
  %21 = load ptr, ptr %other.addr.i, align 8
  call void @llvm.memcpy.p0.p0.i64(ptr align 8 %this1.i, ptr align 8 %21, i64 8, i1 false)
  %22 = load ptr, ptr %retval.i55, align 8
  store ptr %22, ptr %retval.i, align 8
  %23 = load ptr, ptr %retval.i, align 8
  %coerce.dive = getelementptr inbounds %"class.v8::Local.43", ptr %agg.tmp10, i32 0, i32 0
  %coerce.dive12 = getelementptr inbounds %"class.v8::LocalBase.44", ptr %coerce.dive, i32 0, i32 0
  %coerce.dive13 = getelementptr inbounds %"class.v8::IndirectHandleBase", ptr %coerce.dive12, i32 0, i32 0
  store ptr %23, ptr %coerce.dive13, align 8
  %coerce.dive14 = getelementptr inbounds %"class.v8::Local.43", ptr %agg.tmp10, i32 0, i32 0
  %coerce.dive15 = getelementptr inbounds %"class.v8::LocalBase.44", ptr %coerce.dive14, i32 0, i32 0
  %coerce.dive16 = getelementptr inbounds %"class.v8::IndirectHandleBase", ptr %coerce.dive15, i32 0, i32 0
  %24 = load ptr, ptr %coerce.dive16, align 8
  store ptr %24, ptr %that.i, align 8
  store ptr %agg.tmp, ptr %this.addr.i, align 8
  %this3.i = load ptr, ptr %this.addr.i, align 8
  store ptr %this3.i, ptr %this.addr.i78, align 8
  store ptr %that.i, ptr %other.addr.i79, align 8
  %this1.i80 = load ptr, ptr %this.addr.i78, align 8
  %25 = load ptr, ptr %other.addr.i79, align 8
  call void @llvm.memcpy.p0.p0.i64(ptr align 8 %this1.i80, ptr align 8 %25, i64 8, i1 false)
  %coerce.dive17 = getelementptr inbounds %"class.v8::Local", ptr %agg.tmp, i32 0, i32 0
  %coerce.dive18 = getelementptr inbounds %"class.v8::LocalBase", ptr %coerce.dive17, i32 0, i32 0
  %coerce.dive19 = getelementptr inbounds %"class.v8::IndirectHandleBase", ptr %coerce.dive18, i32 0, i32 0
  %26 = load ptr, ptr %coerce.dive19, align 8
  %call20 = call noundef ptr @_ZN6v8impl23JsValueFromV8LocalValueEN2v85LocalINS0_5ValueEEE(ptr %26)
  %27 = load ptr, ptr %result.addr, align 8
  store ptr %call20, ptr %27, align 8
  br label %if.end34

if.else:                                          ; preds = %do.end7
  %28 = load ptr, ptr %isolate, align 8
  store ptr %28, ptr %isolate.addr.i40, align 8
  %29 = load ptr, ptr %isolate.addr.i40, align 8
  store ptr %29, ptr %isolate.addr.i52, align 8
  %30 = load ptr, ptr %isolate.addr.i40, align 8
  store ptr %30, ptr %isolate.addr.i44, align 8
  store i32 8, ptr %index.addr.i, align 4
  %31 = load ptr, ptr %isolate.addr.i44, align 8
  %32 = ptrtoint ptr %31 to i64
  %add.i = add i64 %32, 576
  %33 = load i32, ptr %index.addr.i, align 4
  %mul.i = mul nsw i32 %33, 8
  %conv.i = sext i32 %mul.i to i64
  %add1.i = add i64 %add.i, %conv.i
  store i64 %add1.i, ptr %addr.i, align 8
  %34 = load i64, ptr %addr.i, align 8
  %35 = inttoptr i64 %34 to ptr
  store ptr %35, ptr %slot.i41, align 8
  %36 = load ptr, ptr %slot.i41, align 8
  store ptr %36, ptr %slot.addr.i, align 8
  %37 = load ptr, ptr %slot.addr.i, align 8
  store ptr %37, ptr %slot.addr.i62, align 8
  %38 = load ptr, ptr %slot.addr.i62, align 8
  store ptr %retval.i61, ptr %this.addr.i67, align 8
  store ptr %38, ptr %location.addr.i, align 8
  %this1.i68 = load ptr, ptr %this.addr.i67, align 8
  %39 = load ptr, ptr %location.addr.i, align 8
  store ptr %this1.i68, ptr %this.addr.i.i, align 8
  store ptr %39, ptr %location.addr.i.i, align 8
  %this1.i.i = load ptr, ptr %this.addr.i.i, align 8
  %40 = load ptr, ptr %location.addr.i.i, align 8
  store ptr %40, ptr %this1.i.i, align 8
  %41 = load ptr, ptr %retval.i61, align 8
  store ptr %41, ptr %ref.tmp.i, align 8
  store ptr %retval.i54, ptr %this.addr.i64, align 8
  store ptr %ref.tmp.i, ptr %other.addr.i65, align 8
  %this1.i66 = load ptr, ptr %this.addr.i64, align 8
  %42 = load ptr, ptr %other.addr.i65, align 8
  call void @llvm.memcpy.p0.p0.i64(ptr align 8 %this1.i66, ptr align 8 %42, i64 8, i1 false)
  %43 = load ptr, ptr %retval.i54, align 8
  store ptr %43, ptr %retval.i39, align 8
  %44 = load ptr, ptr %retval.i39, align 8
  %coerce.dive24 = getelementptr inbounds %"class.v8::Local.43", ptr %agg.tmp22, i32 0, i32 0
  %coerce.dive25 = getelementptr inbounds %"class.v8::LocalBase.44", ptr %coerce.dive24, i32 0, i32 0
  %coerce.dive26 = getelementptr inbounds %"class.v8::IndirectHandleBase", ptr %coerce.dive25, i32 0, i32 0
  store ptr %44, ptr %coerce.dive26, align 8
  %coerce.dive27 = getelementptr inbounds %"class.v8::Local.43", ptr %agg.tmp22, i32 0, i32 0
  %coerce.dive28 = getelementptr inbounds %"class.v8::LocalBase.44", ptr %coerce.dive27, i32 0, i32 0
  %coerce.dive29 = getelementptr inbounds %"class.v8::IndirectHandleBase", ptr %coerce.dive28, i32 0, i32 0
  %45 = load ptr, ptr %coerce.dive29, align 8
  store ptr %45, ptr %that.i36, align 8
  store ptr %agg.tmp21, ptr %this.addr.i37, align 8
  %this3.i38 = load ptr, ptr %this.addr.i37, align 8
  store ptr %this3.i38, ptr %this.addr.i75, align 8
  store ptr %that.i36, ptr %other.addr.i76, align 8
  %this1.i77 = load ptr, ptr %this.addr.i75, align 8
  %46 = load ptr, ptr %other.addr.i76, align 8
  call void @llvm.memcpy.p0.p0.i64(ptr align 8 %this1.i77, ptr align 8 %46, i64 8, i1 false)
  %coerce.dive30 = getelementptr inbounds %"class.v8::Local", ptr %agg.tmp21, i32 0, i32 0
  %coerce.dive31 = getelementptr inbounds %"class.v8::LocalBase", ptr %coerce.dive30, i32 0, i32 0
  %coerce.dive32 = getelementptr inbounds %"class.v8::IndirectHandleBase", ptr %coerce.dive31, i32 0, i32 0
  %47 = load ptr, ptr %coerce.dive32, align 8
  %call33 = call noundef ptr @_ZN6v8impl23JsValueFromV8LocalValueEN2v85LocalINS0_5ValueEEE(ptr %47)
  %48 = load ptr, ptr %result.addr, align 8
  store ptr %call33, ptr %48, align 8
  br label %if.end34

if.end34:                                         ; preds = %if.else, %if.then9
  %49 = load ptr, ptr %env.addr, align 8
  %call35 = call noundef i32 @_Z21napi_clear_last_errorP10napi_env__(ptr noundef %49)
  store i32 %call35, ptr %retval, align 4
  br label %return

return:                                           ; preds = %if.end34, %if.then5, %if.then
  %50 = load i32, ptr %retval, align 4
  ret i32 %50
}